target datalayout = "e-m:e-p270:32:32-p271:32:32-p272:64:64-i64:64-i128:128-f80:128-n8:16:32:64-S128"
target triple = "x86_64-pc-linux-gnu"

%struct.mspack_system = type { ptr, ptr, ptr, ptr, ptr, ptr, ptr, ptr, ptr, ptr, ptr }
%struct.noned_state = type { ptr, ptr, ptr, ptr, i32 }

; Function Attrs: nounwind uwtable
define internal i32 @noned_decompress(ptr noundef %0, i64 noundef %1) #0 {
  %3 = alloca i32, align 4
  %4 = alloca ptr, align 8
  %5 = alloca i64, align 8
  %6 = alloca i32, align 4
  %7 = alloca i32, align 4
  store ptr %0, ptr %4, align 8, !tbaa !148
  store i64 %1, ptr %5, align 8, !tbaa !78
  call void @llvm.lifetime.start.p0(i64 4, ptr %6) #4
  br label %8

8:                                                ; preds = %62, %2
  %9 = load i64, ptr %5, align 8, !tbaa !78
  %10 = icmp sgt i64 %9, 0
  br i1 %10, label %11, label %67

11:                                               ; preds = %8
  %12 = load i64, ptr %5, align 8, !tbaa !78
  %13 = load ptr, ptr %4, align 8, !tbaa !148
  %14 = getelementptr inbounds nuw %struct.noned_state, ptr %13, i32 0, i32 4
  %15 = load i32, ptr %14, align 8, !tbaa !150
  %16 = sext i32 %15 to i64
  %17 = icmp sgt i64 %12, %16
  br i1 %17, label %18, label %22

18:                                               ; preds = %11
  %19 = load ptr, ptr %4, align 8, !tbaa !148
  %20 = getelementptr inbounds nuw %struct.noned_state, ptr %19, i32 0, i32 4
  %21 = load i32, ptr %20, align 8, !tbaa !150
  br label %25

22:                                               ; preds = %11
  %23 = load i64, ptr %5, align 8, !tbaa !78
  %24 = trunc i64 %23 to i32
  br label %25

25:                                               ; preds = %22, %18
  %26 = phi i32 [ %21, %18 ], [ %24, %22 ]
  store i32 %26, ptr %6, align 4, !tbaa !48
  %27 = load ptr, ptr %4, align 8, !tbaa !148
  %28 = getelementptr inbounds nuw %struct.noned_state, ptr %27, i32 0, i32 0
  %29 = load ptr, ptr %28, align 8, !tbaa !152
  %30 = getelementptr inbounds nuw %struct.mspack_system, ptr %29, i32 0, i32 2
  %31 = load ptr, ptr %30, align 8, !tbaa !116
  %32 = load ptr, ptr %4, align 8, !tbaa !148
  %33 = getelementptr inbounds nuw %struct.noned_state, ptr %32, i32 0, i32 1
  %34 = load ptr, ptr %33, align 8, !tbaa !153
  %35 = load ptr, ptr %4, align 8, !tbaa !148
  %36 = getelementptr inbounds nuw %struct.noned_state, ptr %35, i32 0, i32 3
  %37 = load ptr, ptr %36, align 8, !tbaa !154
  %38 = getelementptr inbounds i8, ptr %37, i64 0
  %39 = load i32, ptr %6, align 4, !tbaa !48
  %40 = call i32 %31(ptr noundef %34, ptr noundef %38, i32 noundef %39)
  %41 = load i32, ptr %6, align 4, !tbaa !48
  %42 = icmp ne i32 %40, %41
  br i1 %42, label %43, label %44

43:                                               ; preds = %25
  store i32 3, ptr %3, align 4
  store i32 1, ptr %7, align 4
  br label %68

44:                                               ; preds = %25
  %45 = load ptr, ptr %4, align 8, !tbaa !148
  %46 = getelementptr inbounds nuw %struct.noned_state, ptr %45, i32 0, i32 0
  %47 = load ptr, ptr %46, align 8, !tbaa !152
  %48 = getelementptr inbounds nuw %struct.mspack_system, ptr %47, i32 0, i32 3
  %49 = load ptr, ptr %48, align 8, !tbaa !144
  %50 = load ptr, ptr %4, align 8, !tbaa !148
  %51 = getelementptr inbounds nuw %struct.noned_state, ptr %50, i32 0, i32 2
  %52 = load ptr, ptr %51, align 8, !tbaa !155
  %53 = load ptr, ptr %4, align 8, !tbaa !148
  %54 = getelementptr inbounds nuw %struct.noned_state, ptr %53, i32 0, i32 3
  %55 = load ptr, ptr %54, align 8, !tbaa !154
  %56 = getelementptr inbounds i8, ptr %55, i64 0
  %57 = load i32, ptr %6, align 4, !tbaa !48
  %58 = call i32 %49(ptr noundef %52, ptr noundef %56, i32 noundef %57)
  %59 = load i32, ptr %6, align 4, !tbaa !48
  %60 = icmp ne i32 %58, %59
  br i1 %60, label %61, label %62

61:                                               ; preds = %44
  store i32 4, ptr %3, align 4
  store i32 1, ptr %7, align 4
  br label %68

62:                                               ; preds = %44
  %63 = load i32, ptr %6, align 4, !tbaa !48
  %64 = sext i32 %63 to i64
  %65 = load i64, ptr %5, align 8, !tbaa !78
  %66 = sub nsw i64 %65, %64
  store i64 %66, ptr %5, align 8, !tbaa !78
  br label %8

67:                                               ; preds = %8
  store i32 0, ptr %3, align 4
  store i32 1, ptr %7, align 4
  br label %68

68:                                               ; preds = %67, %61, %43
  call void @llvm.lifetime.end.p0(i64 4, ptr %6) #4
  %69 = load i32, ptr %3, align 4
  ret i32 %69
}