; Function Attrs: nounwind uwtable
define internal range(i32 0, 5) i32 @noned_decompress(ptr noundef readonly captures(none) %0, i64 noundef %1) #0 {
  %3 = getelementptr inbounds nuw i8, ptr %0, i64 32
  %4 = icmp sgt i64 %1, 0
  br i1 %4, label %.lr.ph, label %._crit_edge

.lr.ph:                                           ; preds = %2
  %5 = getelementptr inbounds nuw i8, ptr %0, i64 8
  %6 = getelementptr inbounds nuw i8, ptr %0, i64 24
  %7 = getelementptr inbounds nuw i8, ptr %0, i64 16
  br label %8

8:                                                ; preds = %.lr.ph, %26
  %.01720 = phi i64 [ %1, %.lr.ph ], [ %27, %26 ]
  %9 = load i32, ptr %3, align 8, !tbaa !133
  %10 = sext i32 %9 to i64
  %11 = tail call i64 @llvm.smin.i64(i64 %.01720, i64 %10)
  %12 = trunc i64 %11 to i32
  %13 = load ptr, ptr %0, align 8, !tbaa !56
  %14 = getelementptr inbounds nuw i8, ptr %13, i64 16
  %15 = load ptr, ptr %14, align 8, !tbaa !71
  %16 = load ptr, ptr %5, align 8, !tbaa !131
  %17 = load ptr, ptr %6, align 8, !tbaa !58
  %18 = tail call i32 %15(ptr noundef %16, ptr noundef %17, i32 noundef %12) #8
  %.not = icmp eq i32 %18, %12
  br i1 %.not, label %19, label %._crit_edge

19:                                               ; preds = %8
  %20 = load ptr, ptr %0, align 8, !tbaa !56
  %21 = getelementptr inbounds nuw i8, ptr %20, i64 24
  %22 = load ptr, ptr %21, align 8, !tbaa !130
  %23 = load ptr, ptr %7, align 8, !tbaa !132
  %24 = load ptr, ptr %6, align 8, !tbaa !58
  %25 = tail call i32 %22(ptr noundef %23, ptr noundef %24, i32 noundef %12) #8
  %.not19 = icmp eq i32 %25, %12
  br i1 %.not19, label %26, label %._crit_edge

26:                                               ; preds = %19
  %27 = sub nsw i64 %.01720, %11
  %28 = icmp sgt i64 %27, 0
  br i1 %28, label %8, label %._crit_edge

._crit_edge:                                      ; preds = %8, %19, %26, %2
  %.0 = phi i32 [ 0, %2 ], [ 0, %26 ], [ 4, %19 ], [ 3, %8 ]
  ret i32 %.0
}